target datalayout = "e-m:e-p270:32:32-p271:32:32-p272:64:64-i64:64-i128:128-f80:128-n8:16:32:64-S128"
target triple = "x86_64-pc-linux-gnu"

%union.SourceSpan = type { i64 }
%struct.Signature_ = type <{ %struct.CalleeAttributes, i16, i8, i32, i32, [4 x i8], ptr }>
%struct.CalleeAttributes = type { i8 }
%struct.Decl_ = type { ptr, ptr, %union.SourceSpan, i64, %union.anon, i32, %union.anon.0, i64, ptr, ptr, ptr, %union.anon.1 }
%union.anon = type { ptr }
%union.anon.0 = type { i16 }
%union.anon.1 = type { %struct.FuncDecl }
%struct.FuncDecl = type { i32, [4 x i8], %struct.Signature_, i32, i32, %union.anon.8 }
%union.anon.8 = type { %struct.anon.9 }
%struct.anon.9 = type { i16, %union.anon.10 }
%union.anon.10 = type { ptr }
%struct.VHeader_ = type { i32, i32, [0 x i8] }
%struct.Type_ = type { i32, ptr, ptr, ptr, %union.anon.85, ptr, ptr, %union.anon.87 }
%union.anon.85 = type { ptr }
%union.anon.87 = type { %struct.TypeFunction }
%struct.TypeFunction = type { ptr, ptr, ptr }
%struct.TypeInfo_ = type { i16, ptr, %union.SourceSpan, %union.anon.56 }
%union.anon.56 = type { %struct.anon.57 }
%struct.anon.57 = type { ptr, ptr }
%struct.anon.2 = type { ptr, ptr, %union.anon.3 }
%union.anon.3 = type { %struct.BitStructDecl }
%struct.BitStructDecl = type { ptr, ptr, i8 }

@.str.133 = private unnamed_addr constant [56 x i8] c"Expected an interface name, but %s is not an interface.\00", align 1
@.str.134 = private unnamed_addr constant [102 x i8] c"The interface '%s' was included more than once, this is not allowed, so please remove the duplicates.\00", align 1

; Function Attrs: nounwind uwtable
define internal zeroext i1 @sema_resolve_implemented_interfaces(ptr noundef %0, ptr noundef %1, i1 noundef zeroext %2) #0 {
  %4 = alloca i32, align 4
  %5 = alloca ptr, align 8
  %6 = alloca ptr, align 8
  %7 = alloca i1, align 1
  %8 = alloca ptr, align 8
  %9 = alloca ptr, align 8
  %10 = alloca i8, align 1
  %11 = alloca ptr, align 8
  %12 = alloca i32, align 4
  %13 = alloca i32, align 4
  %14 = alloca ptr, align 8
  %15 = alloca ptr, align 8
  %16 = alloca i32, align 4
  store ptr %0, ptr %8, align 8
  store ptr %1, ptr %9, align 8
  %17 = zext i1 %2 to i8
  store i8 %17, ptr %10, align 1
  %18 = load ptr, ptr %9, align 8
  %19 = getelementptr inbounds %struct.Decl_, ptr %18, i32 0, i32 11
  %20 = getelementptr inbounds %struct.anon.2, ptr %19, i32 0, i32 0
  %21 = load ptr, ptr %20, align 8
  store ptr %21, ptr %11, align 8
  %22 = load ptr, ptr %11, align 8
  store ptr %22, ptr %5, align 8
  %23 = load ptr, ptr %5, align 8
  %24 = icmp ne ptr %23, null
  br i1 %24, label %26, label %25

25:                                               ; preds = %3
  store i32 0, ptr %4, align 4
  br label %31

26:                                               ; preds = %3
  %27 = load ptr, ptr %5, align 8
  store ptr %27, ptr %6, align 8
  %28 = load ptr, ptr %6, align 8
  %29 = getelementptr inbounds %struct.VHeader_, ptr %28, i64 -1
  %30 = load i32, ptr %29, align 4
  store i32 %30, ptr %4, align 4
  br label %31

31:                                               ; preds = %26, %25
  %32 = load i32, ptr %4, align 4
  store i32 %32, ptr %12, align 4
  %33 = load i32, ptr %12, align 4
  %34 = icmp ne i32 %33, 0
  br i1 %34, label %36, label %35

35:                                               ; preds = %31
  store i1 true, ptr %7, align 1
  br label %114

36:                                               ; preds = %31
  store i32 0, ptr %13, align 4
  br label %37

37:                                               ; preds = %110, %36
  %38 = load i32, ptr %13, align 4
  %39 = load i32, ptr %12, align 4
  %40 = icmp ult i32 %38, %39
  br i1 %40, label %41, label %113

41:                                               ; preds = %37
  %42 = load ptr, ptr %11, align 8
  %43 = load i32, ptr %13, align 4
  %44 = zext i32 %43 to i64
  %45 = getelementptr inbounds ptr, ptr %42, i64 %44
  %46 = load ptr, ptr %45, align 8
  store ptr %46, ptr %14, align 8
  %47 = load ptr, ptr %8, align 8
  %48 = load ptr, ptr %14, align 8
  %49 = call zeroext i1 @sema_resolve_type_info(ptr noundef %47, ptr noundef %48, i32 noundef 2)
  br i1 %49, label %51, label %50

50:                                               ; preds = %41
  store i1 false, ptr %7, align 1
  br label %114

51:                                               ; preds = %41
  %52 = load ptr, ptr %14, align 8
  %53 = getelementptr inbounds %struct.TypeInfo_, ptr %52, i32 0, i32 1
  %54 = load ptr, ptr %53, align 8
  %55 = getelementptr inbounds %struct.Type_, ptr %54, i32 0, i32 1
  %56 = load ptr, ptr %55, align 8
  store ptr %56, ptr %15, align 8
  %57 = load ptr, ptr %15, align 8
  %58 = getelementptr inbounds %struct.Type_, ptr %57, i32 0, i32 0
  %59 = load i32, ptr %58, align 8
  %60 = icmp ne i32 %59, 28
  br i1 %60, label %61, label %70

61:                                               ; preds = %51
  br label %62

62:                                               ; preds = %61
  %63 = load ptr, ptr %14, align 8
  %64 = getelementptr inbounds %struct.TypeInfo_, ptr %63, i32 0, i32 2
  %65 = load ptr, ptr %15, align 8
  %66 = call ptr @type_quoted_error_string(ptr noundef %65)
  %67 = getelementptr inbounds %union.SourceSpan, ptr %64, i32 0, i32 0
  %68 = load i64, ptr %67, align 8
  call void (i64, ptr, ...) @sema_error_at(i64 %68, ptr noundef @.str.133, ptr noundef %66)
  store i1 false, ptr %7, align 1
  br label %114

69:                                               ; No predecessors!
  br label %70

70:                                               ; preds = %69, %51
  store i32 0, ptr %16, align 4
  br label %71

71:                                               ; preds = %98, %70
  %72 = load i32, ptr %16, align 4
  %73 = load i32, ptr %13, align 4
  %74 = icmp ult i32 %72, %73
  br i1 %74, label %75, label %101

75:                                               ; preds = %71
  %76 = load ptr, ptr %11, align 8
  %77 = load i32, ptr %16, align 4
  %78 = zext i32 %77 to i64
  %79 = getelementptr inbounds ptr, ptr %76, i64 %78
  %80 = load ptr, ptr %79, align 8
  %81 = getelementptr inbounds %struct.TypeInfo_, ptr %80, i32 0, i32 1
  %82 = load ptr, ptr %81, align 8
  %83 = getelementptr inbounds %struct.Type_, ptr %82, i32 0, i32 1
  %84 = load ptr, ptr %83, align 8
  %85 = load ptr, ptr %15, align 8
  %86 = icmp eq ptr %84, %85
  br i1 %86, label %87, label %97

87:                                               ; preds = %75
  br label %88

88:                                               ; preds = %87
  %89 = load ptr, ptr %14, align 8
  %90 = getelementptr inbounds %struct.TypeInfo_, ptr %89, i32 0, i32 2
  %91 = load ptr, ptr %15, align 8
  %92 = getelementptr inbounds %struct.Type_, ptr %91, i32 0, i32 2
  %93 = load ptr, ptr %92, align 8
  %94 = getelementptr inbounds %union.SourceSpan, ptr %90, i32 0, i32 0
  %95 = load i64, ptr %94, align 8
  call void (i64, ptr, ...) @sema_error_at(i64 %95, ptr noundef @.str.134, ptr noundef %93)
  store i1 false, ptr %7, align 1
  br label %114

96:                                               ; No predecessors!
  br label %97

97:                                               ; preds = %96, %75
  br label %98

98:                                               ; preds = %97
  %99 = load i32, ptr %16, align 4
  %100 = add i32 %99, 1
  store i32 %100, ptr %16, align 4
  br label %71, !llvm.loop !37

101:                                              ; preds = %71
  %102 = load i8, ptr %10, align 1
  %103 = trunc i8 %102 to i1
  br i1 %103, label %104, label %109

104:                                              ; preds = %101
  %105 = load ptr, ptr %8, align 8
  %106 = load ptr, ptr %15, align 8
  %107 = call zeroext i1 @sema_resolve_type_decl(ptr noundef %105, ptr noundef %106)
  br i1 %107, label %109, label %108

108:                                              ; preds = %104
  store i1 false, ptr %7, align 1
  br label %114

109:                                              ; preds = %104, %101
  br label %110

110:                                              ; preds = %109
  %111 = load i32, ptr %13, align 4
  %112 = add i32 %111, 1
  store i32 %112, ptr %13, align 4
  br label %37, !llvm.loop !38

113:                                              ; preds = %37
  store i1 true, ptr %7, align 1
  br label %114

114:                                              ; preds = %113, %108, %88, %62, %50, %35
  %115 = load i1, ptr %7, align 1
  ret i1 %115
}