; Function Attrs: nounwind uwtable
define internal fastcc noundef zeroext i1 @sema_resolve_implemented_interfaces(ptr noundef %0, ptr readonly %.80.val, i1 noundef zeroext %1) unnamed_addr #0 {
  %.not = icmp eq ptr %.80.val, null
  br i1 %.not, label %.thread, label %3

3:                                                ; preds = %2
  %4 = getelementptr inbounds i8, ptr %.80.val, i64 -8
  %5 = load i32, ptr %4, align 4
  %.not34 = icmp eq i32 %5, 0
  br i1 %.not34, label %.thread, label %.preheader3

.preheader3:                                      ; preds = %3
  %wide.trip.count43 = zext i32 %5 to i64
  br i1 %1, label %.preheader3.split.us, label %.preheader3.split

.preheader3.split.us:                             ; preds = %.preheader3, %17
  %indvars.iv40 = phi i64 [ %indvars.iv.next41, %17 ], [ 0, %.preheader3 ]
  %6 = getelementptr inbounds ptr, ptr %.80.val, i64 %indvars.iv40
  %7 = load ptr, ptr %6, align 8
  %8 = tail call zeroext i1 @sema_resolve_type_info(ptr noundef %0, ptr noundef %7, i32 noundef 2) #10
  br i1 %8, label %9, label %.thread

9:                                                ; preds = %.preheader3.split.us
  %10 = getelementptr inbounds i8, ptr %7, i64 8
  %11 = load ptr, ptr %10, align 8
  %12 = getelementptr inbounds i8, ptr %11, i64 8
  %13 = load ptr, ptr %12, align 8
  %14 = load i32, ptr %13, align 8
  %.not35.us = icmp eq i32 %14, 28
  br i1 %.not35.us, label %.preheader.us, label %.split.us

15:                                               ; preds = %.lr.ph.us
  %indvars.iv.next37 = add nuw nsw i64 %indvars.iv36, 1
  %exitcond39.not = icmp eq i64 %indvars.iv.next37, %indvars.iv40
  br i1 %exitcond39.not, label %._crit_edge.us, label %.lr.ph.us, !llvm.loop !38

._crit_edge.us:                                   ; preds = %15, %.preheader.us
  %16 = tail call zeroext i1 @sema_resolve_type_decl(ptr noundef %0, ptr noundef nonnull %13) #10
  br i1 %16, label %17, label %.thread

17:                                               ; preds = %._crit_edge.us
  %indvars.iv.next41 = add nuw nsw i64 %indvars.iv40, 1
  %exitcond44.not = icmp eq i64 %indvars.iv.next41, %wide.trip.count43
  br i1 %exitcond44.not, label %.thread, label %.preheader3.split.us, !llvm.loop !39

.lr.ph.us:                                        ; preds = %.preheader.us, %15
  %indvars.iv36 = phi i64 [ %indvars.iv.next37, %15 ], [ 0, %.preheader.us ]
  %18 = getelementptr inbounds ptr, ptr %.80.val, i64 %indvars.iv36
  %19 = load ptr, ptr %18, align 8
  %20 = getelementptr inbounds i8, ptr %19, i64 8
  %21 = load ptr, ptr %20, align 8
  %22 = getelementptr inbounds i8, ptr %21, i64 8
  %23 = load ptr, ptr %22, align 8
  %24 = icmp eq ptr %23, %13
  br i1 %24, label %.split12.us, label %15

.preheader.us:                                    ; preds = %9
  %.not16 = icmp eq i64 %indvars.iv40, 0
  br i1 %.not16, label %._crit_edge.us, label %.lr.ph.us

.preheader3.split:                                ; preds = %.preheader3, %._crit_edge
  %indvars.iv31 = phi i64 [ %indvars.iv.next32, %._crit_edge ], [ 0, %.preheader3 ]
  %25 = getelementptr inbounds ptr, ptr %.80.val, i64 %indvars.iv31
  %26 = load ptr, ptr %25, align 8
  %27 = tail call zeroext i1 @sema_resolve_type_info(ptr noundef %0, ptr noundef %26, i32 noundef 2) #10
  br i1 %27, label %28, label %.thread

28:                                               ; preds = %.preheader3.split
  %29 = getelementptr inbounds i8, ptr %26, i64 8
  %30 = load ptr, ptr %29, align 8
  %31 = getelementptr inbounds i8, ptr %30, i64 8
  %32 = load ptr, ptr %31, align 8
  %33 = load i32, ptr %32, align 8
  %.not35 = icmp eq i32 %33, 28
  br i1 %.not35, label %.preheader, label %.split.us

.preheader:                                       ; preds = %28
  %.not15 = icmp eq i64 %indvars.iv31, 0
  br i1 %.not15, label %._crit_edge, label %.lr.ph

.split.us:                                        ; preds = %28, %9
  %.us-phi9 = phi ptr [ %13, %9 ], [ %32, %28 ]
  %.us-phi10 = phi ptr [ %7, %9 ], [ %26, %28 ]
  %34 = getelementptr inbounds i8, ptr %.us-phi10, i64 16
  %35 = tail call ptr @type_quoted_error_string(ptr noundef nonnull %.us-phi9) #10
  %36 = load i64, ptr %34, align 8
  tail call void (i64, ptr, ...) @sema_error_at(i64 %36, ptr noundef nonnull @.str.133, ptr noundef %35) #10
  br label %.thread

37:                                               ; preds = %.lr.ph
  %indvars.iv.next = add nuw nsw i64 %indvars.iv, 1
  %exitcond.not = icmp eq i64 %indvars.iv.next, %indvars.iv31
  br i1 %exitcond.not, label %._crit_edge, label %.lr.ph, !llvm.loop !38

.lr.ph:                                           ; preds = %.preheader, %37
  %indvars.iv = phi i64 [ %indvars.iv.next, %37 ], [ 0, %.preheader ]
  %38 = getelementptr inbounds ptr, ptr %.80.val, i64 %indvars.iv
  %39 = load ptr, ptr %38, align 8
  %40 = getelementptr inbounds i8, ptr %39, i64 8
  %41 = load ptr, ptr %40, align 8
  %42 = getelementptr inbounds i8, ptr %41, i64 8
  %43 = load ptr, ptr %42, align 8
  %44 = icmp eq ptr %43, %32
  br i1 %44, label %.split12.us, label %37

.split12.us:                                      ; preds = %.lr.ph, %.lr.ph.us
  %.us-phi13 = phi ptr [ %13, %.lr.ph.us ], [ %32, %.lr.ph ]
  %.us-phi14 = phi ptr [ %7, %.lr.ph.us ], [ %26, %.lr.ph ]
  %45 = getelementptr inbounds i8, ptr %.us-phi14, i64 16
  %46 = getelementptr inbounds i8, ptr %.us-phi13, i64 16
  %47 = load ptr, ptr %46, align 8
  %48 = load i64, ptr %45, align 8
  tail call void (i64, ptr, ...) @sema_error_at(i64 %48, ptr noundef nonnull @.str.134, ptr noundef %47) #10
  br label %.thread

._crit_edge:                                      ; preds = %37, %.preheader
  %indvars.iv.next32 = add nuw nsw i64 %indvars.iv31, 1
  %exitcond35.not = icmp eq i64 %indvars.iv.next32, %wide.trip.count43
  br i1 %exitcond35.not, label %.thread, label %.preheader3.split, !llvm.loop !39

.thread:                                          ; preds = %.preheader3.split, %._crit_edge, %17, %._crit_edge.us, %.preheader3.split.us, %2, %3, %.split12.us, %.split.us
  %.030 = phi i1 [ false, %.split.us ], [ false, %.split12.us ], [ true, %3 ], [ true, %2 ], [ true, %17 ], [ false, %._crit_edge.us ], [ false, %.preheader3.split.us ], [ false, %.preheader3.split ], [ %27, %._crit_edge ]
  ret i1 %.030
}